target datalayout = "e-m:e-p270:32:32-p271:32:32-p272:64:64-i64:64-i128:128-f80:128-n8:16:32:64-S128"
target triple = "x86_64-pc-linux-gnu"

%struct.mbedtls_ssl_context = type { ptr, i32, i32, i32, i32, i32, ptr, ptr, ptr, ptr, ptr, ptr, ptr, ptr, ptr, ptr, ptr, ptr, ptr, ptr, ptr, ptr, ptr, ptr, ptr, ptr, ptr, ptr, ptr, ptr, ptr, ptr, ptr, i32, i64, i64, i16, i64, i64, i64, i64, i32, i32, i8, i8, i32, i8, ptr, ptr, ptr, ptr, ptr, ptr, ptr, i32, i64, i64, [8 x i8], i16, ptr, ptr, ptr, i64, i32, i64, [12 x i8], [12 x i8], [32 x i8], i8, i8, ptr, ptr, %union.mbedtls_ssl_user_data_t }
%union.mbedtls_ssl_user_data_t = type { i64 }
%struct.mbedtls_ssl_config = type { i32, i32, i8, i8, i8, i8, i8, i8, i8, i8, i8, i8, i16, i8, i8, i8, ptr, i32, ptr, ptr, ptr, ptr, ptr, ptr, ptr, ptr, ptr, ptr, ptr, ptr, ptr, ptr, ptr, ptr, ptr, ptr, ptr, i64, ptr, ptr, ptr, ptr, ptr, ptr, ptr, ptr, %struct.mbedtls_mpi, %struct.mbedtls_mpi, ptr, i64, ptr, i64, ptr, i32, i32, i32, i32, [8 x i8], i32, i32, %union.mbedtls_ssl_user_data_t, ptr, ptr }
%struct.mbedtls_mpi = type { ptr, i16, i16 }

@.str = private unnamed_addr constant [130 x i8] c"generated/home/dtcxzyw/WorkSpace/Projects/compilers/llvm-opt-benchmark/bench/lief/bench_build/mbed_src/library/ssl_tls13_client.c\00", align 1
@.str.34 = private unnamed_addr constant [25 x i8] c"missing input data in %s\00", align 1
@__func__.ssl_tls13_parse_supported_versions_ext = private unnamed_addr constant [39 x i8] c"ssl_tls13_parse_supported_versions_ext\00", align 1
@.str.54 = private unnamed_addr constant [19 x i8] c"unexpected version\00", align 1
@.str.55 = private unnamed_addr constant [45 x i8] c"supported_versions ext data length incorrect\00", align 1

; Function Attrs: inlinehint nounwind uwtable
define internal i32 @mbedtls_ssl_chk_buf_ptr(ptr noundef %0, ptr noundef %1, i64 noundef %2) #3 {
  %4 = alloca ptr, align 8
  %5 = alloca ptr, align 8
  %6 = alloca i64, align 8
  store ptr %0, ptr %4, align 8, !tbaa !8
  store ptr %1, ptr %5, align 8, !tbaa !8
  store i64 %2, ptr %6, align 8, !tbaa !14
  %7 = load ptr, ptr %4, align 8, !tbaa !8
  %8 = load ptr, ptr %5, align 8, !tbaa !8
  %9 = icmp ugt ptr %7, %8
  br i1 %9, label %18, label %10

10:                                               ; preds = %3
  %11 = load i64, ptr %6, align 8, !tbaa !14
  %12 = load ptr, ptr %5, align 8, !tbaa !8
  %13 = load ptr, ptr %4, align 8, !tbaa !8
  %14 = ptrtoint ptr %12 to i64
  %15 = ptrtoint ptr %13 to i64
  %16 = sub i64 %14, %15
  %17 = icmp ugt i64 %11, %16
  br label %18

18:                                               ; preds = %10, %3
  %19 = phi i1 [ true, %3 ], [ %17, %10 ]
  %20 = zext i1 %19 to i32
  ret i32 %20
}

; Function Attrs: nounwind uwtable
define internal i32 @ssl_tls13_parse_supported_versions_ext(ptr noundef %0, ptr noundef %1, ptr noundef %2) #0 {
  %4 = alloca i32, align 4
  %5 = alloca ptr, align 8
  %6 = alloca ptr, align 8
  %7 = alloca ptr, align 8
  store ptr %0, ptr %5, align 8, !tbaa !3
  store ptr %1, ptr %6, align 8, !tbaa !8
  store ptr %2, ptr %7, align 8, !tbaa !8
  br label %8

8:                                                ; preds = %3
  %9 = load ptr, ptr %6, align 8, !tbaa !8
  %10 = load ptr, ptr %7, align 8, !tbaa !8
  %11 = call i32 @mbedtls_ssl_chk_buf_ptr(ptr noundef %9, ptr noundef %10, i64 noundef 2)
  %12 = icmp ne i32 %11, 0
  br i1 %12, label %13, label %16

13:                                               ; preds = %8
  %14 = load ptr, ptr %5, align 8, !tbaa !3
  call void (ptr, i32, ptr, i32, ptr, ...) @mbedtls_debug_print_msg(ptr noundef %14, i32 noundef 1, ptr noundef @.str, i32 noundef 104, ptr noundef @.str.34, ptr noundef @__func__.ssl_tls13_parse_supported_versions_ext)
  %15 = load ptr, ptr %5, align 8, !tbaa !3
  call void @mbedtls_ssl_pend_fatal_alert(ptr noundef %15, i8 noundef zeroext 50, i32 noundef -29440)
  store i32 -29440, ptr %4, align 4
  br label %40

16:                                               ; preds = %8
  br label %17

17:                                               ; preds = %16
  %18 = load ptr, ptr %6, align 8, !tbaa !8
  %19 = load ptr, ptr %5, align 8, !tbaa !3
  %20 = getelementptr inbounds nuw %struct.mbedtls_ssl_context, ptr %19, i32 0, i32 0
  %21 = load ptr, ptr %20, align 8, !tbaa !29
  %22 = getelementptr inbounds nuw %struct.mbedtls_ssl_config, ptr %21, i32 0, i32 3
  %23 = load i8, ptr %22, align 1, !tbaa !94
  %24 = zext i8 %23 to i32
  %25 = call zeroext i16 @mbedtls_ssl_read_version(ptr noundef %18, i32 noundef %24)
  %26 = zext i16 %25 to i32
  %27 = icmp ne i32 %26, 772
  br i1 %27, label %28, label %31

28:                                               ; preds = %17
  %29 = load ptr, ptr %5, align 8, !tbaa !3
  call void (ptr, i32, ptr, i32, ptr, ...) @mbedtls_debug_print_msg(ptr noundef %29, i32 noundef 1, ptr noundef @.str, i32 noundef 107, ptr noundef @.str.54)
  %30 = load ptr, ptr %5, align 8, !tbaa !3
  call void @mbedtls_ssl_pend_fatal_alert(ptr noundef %30, i8 noundef zeroext 47, i32 noundef -26112)
  store i32 -26112, ptr %4, align 4
  br label %40

31:                                               ; preds = %17
  %32 = load ptr, ptr %6, align 8, !tbaa !8
  %33 = getelementptr inbounds i8, ptr %32, i64 2
  %34 = load ptr, ptr %7, align 8, !tbaa !8
  %35 = icmp ne ptr %33, %34
  br i1 %35, label %36, label %39

36:                                               ; preds = %31
  %37 = load ptr, ptr %5, align 8, !tbaa !3
  call void (ptr, i32, ptr, i32, ptr, ...) @mbedtls_debug_print_msg(ptr noundef %37, i32 noundef 1, ptr noundef @.str, i32 noundef 116, ptr noundef @.str.55)
  %38 = load ptr, ptr %5, align 8, !tbaa !3
  call void @mbedtls_ssl_pend_fatal_alert(ptr noundef %38, i8 noundef zeroext 50, i32 noundef -29440)
  store i32 -29440, ptr %4, align 4
  br label %40

39:                                               ; preds = %31
  store i32 0, ptr %4, align 4
  br label %40

40:                                               ; preds = %39, %36, %28, %13
  %41 = load i32, ptr %4, align 4
  ret i32 %41
}