; Function Attrs: nounwind uwtable
define internal fastcc range(i32 -29440, 1) i32 @ssl_tls13_parse_supported_versions_ext(ptr noundef %0, ptr noundef %1, ptr noundef %2) unnamed_addr #0 {
  %4 = icmp ule ptr %1, %2
  %5 = ptrtoint ptr %2 to i64
  %6 = ptrtoint ptr %1 to i64
  %7 = sub i64 %5, %6
  %8 = icmp ugt i64 %7, 1
  %narrow.i.not = and i1 %4, %8
  br i1 %narrow.i.not, label %10, label %9

9:                                                ; preds = %3
  tail call void (ptr, i32, ptr, i32, ptr, ...) @mbedtls_debug_print_msg(ptr noundef %0, i32 noundef 1, ptr noundef nonnull @.str, i32 noundef 104, ptr noundef nonnull @.str.34, ptr noundef nonnull @__func__.ssl_tls13_parse_supported_versions_ext) #12
  tail call void @mbedtls_ssl_pend_fatal_alert(ptr noundef %0, i8 noundef zeroext 50, i32 noundef -29440) #12
  br label %20

10:                                               ; preds = %3
  %11 = load ptr, ptr %0, align 8, !tbaa !39
  %12 = getelementptr inbounds nuw i8, ptr %11, i64 9
  %13 = load i8, ptr %12, align 1, !tbaa !77
  %14 = zext i8 %13 to i32
  %15 = tail call zeroext i16 @mbedtls_ssl_read_version(ptr noundef %1, i32 noundef %14) #12
  %.not12 = icmp eq i16 %15, 772
  br i1 %.not12, label %17, label %16

16:                                               ; preds = %10
  tail call void (ptr, i32, ptr, i32, ptr, ...) @mbedtls_debug_print_msg(ptr noundef nonnull %0, i32 noundef 1, ptr noundef nonnull @.str, i32 noundef 107, ptr noundef nonnull @.str.54) #12
  tail call void @mbedtls_ssl_pend_fatal_alert(ptr noundef nonnull %0, i8 noundef zeroext 47, i32 noundef -26112) #12
  br label %20

17:                                               ; preds = %10
  %18 = getelementptr inbounds nuw i8, ptr %1, i64 2
  %.not13 = icmp eq ptr %18, %2
  br i1 %.not13, label %20, label %19

19:                                               ; preds = %17
  tail call void (ptr, i32, ptr, i32, ptr, ...) @mbedtls_debug_print_msg(ptr noundef nonnull %0, i32 noundef 1, ptr noundef nonnull @.str, i32 noundef 116, ptr noundef nonnull @.str.55) #12
  tail call void @mbedtls_ssl_pend_fatal_alert(ptr noundef nonnull %0, i8 noundef zeroext 50, i32 noundef -29440) #12
  br label %20

20:                                               ; preds = %17, %19, %16, %9
  %.0 = phi i32 [ -29440, %9 ], [ -26112, %16 ], [ -29440, %19 ], [ 0, %17 ]
  ret i32 %.0
}